(dp0
I0
F4.233802991656251
sI1
F3.951861465104808
sI2
F4.210320533435387
sI3
F3.5927347185337477
sI4
F3.7928096436607484
sI5
F3.911946539384939
sI6
F4.706329824395886
sI7
F4.456725221097
sI8
F3.9046052710440833
sI9
F4.271503147218658
sI10
F4.462875685926948
sI11
F4.859776120775819
sI12
F3.708627846283304
sI13
F4.245912411173006
sI14
F4.168962632097116
sI15
F4.30908500514897
sI16
F4.384852732643598
sI17
F4.7901106274651335
sI18
F4.847599114010341
sI19
F4.508480009911663
sI20
F5.204300210892167
sI21
F5.613100435847298
sI22
F4.408275447076126
sI23
F4.340836149790292
sI24
F4.218992417477527
sI25
F3.931278589937359
sI26
F4.187959311665283
sI27
F4.266931018005383
sI28
F4.982215925318408
sI29
F4.706144891443312
sI30
F4.265580819999197
sI31
F4.0492130370846295
sI32
F3.433334678884075
sI33
F3.47479683770664
sI34
F3.987922589058447
sI35
F3.4920382571948942
sI36
F4.056898897548442
sI37
F3.6146419097505857
sI38
F3.67963870190603
sI39
F4.415732905836507
sI40
F3.7211919549790484
sI41
F3.164798648728219
sI42
F3.703828872166346
sI43
F3.660534091909653
sI44
F3.5328859394273704
sI45
F3.7088959410236333
sI46
F3.7543019740284578
sI47
F3.293370643331537
sI48
F4.252209225888097
sI49
F4.235033805639871
sI50
F4.998954436517753
sI51
F4.647501211165348
sI52
F5.133409623231342
sI53
F4.779608170452213
sI54
F4.790463984929704
sI55
F4.17670648304782
sI56
F3.563631876243464
sI57
F3.7643352434902932
sI58
F4.269765964647251
sI59
F3.610382392940403
sI60
F4.337871836206792
sI61
F3.853708716837622
sI62
F4.284312889464764
sI63
F4.055318440470791
sI64
F4.29940947977982
sI65
F4.254897130296157
sI66
F4.44032564403325
sI67
F4.927918620222786
sI68
F5.137695437910358
sI69
F4.30487610585214
sI70
F4.812694973912814
sI71
F4.711551732820969
sI72
F5.184581468894183
sI73
F4.614380191810849
sI74
F5.34409380808379
sI75
F4.76378770940467
sI76
F5.348915793021032
sI77
F5.036870494159694
sI78
F5.508890273090341
sI79
F4.888367877120641
sI80
F4.0113150393801495
sI81
F3.1982414028721005
sI82
F3.792961469481191
sI83
F3.551902050793118
sI84
F4.5312915052056875
sI85
F3.5137028827006795
sI86
F4.158554797642241
sI87
F3.9468604899718356
sI88
F3.3246525373497953
sI89
F3.4506641245718663
sI90
F3.7260588192109414
sI91
F4.425367236953662
sI92
F4.4269837274421535
sI93
F4.011593184254848
sI94
F4.447599469500818
sI95
F3.4866804088557912
sI96
F3.6270849480957232
sI97
F3.428924237883535
sI98
F3.6100006367815975
sI99
F3.7273581679000944
sI100
F3.1113550624090456
sI101
F3.6292127420145492
sI102
F3.8038035468822446
sI103
F3.866022727371698
sI104
F3.5628498602852128
sI105
F3.2143250438588247
sI106
F3.656111014184572
sI107
F3.453282500200451
sI108
F3.716774164364558
sI109
F3.090173714301142
sI110
F3.8928943813987056
sI111
F3.0230729966838927
sI112
F4.045793958068655
sI113
F2.9128172115444033
sI114
F3.3765273768453095
sI115
F2.923517739922082
sI116
F2.91859446626447
sI117
F3.5515850045391595
sI118
F3.3467199388077176
sI119
F3.436700320696422
sI120
F4.014235947603082
sI121
F2.7272682198246665
sI122
F3.022821214621349
sI123
F4.0356552370536125
sI124
F4.675725391591972
sI125
F4.41126153007557
sI126
F4.972958838122433
sI127
F4.8420878498130975
sI128
F4.843084560621587
sI129
F3.866330928272532
sI130
F3.427196105859804
sI131
F3.9819088185960734
sI132
F3.8753511893212114
sI133
F3.9526170138147303
sI134
F4.931808726929735
sI135
F4.11605346167658
sI136
F3.7246365344627184
sI137
F3.9722991336165028
sI138
F3.9059807086500906
sI139
F3.728512359283706
sI140
F3.6806710237201017
sI141
F3.985455138897559
sI142
F4.610874916864116
sI143
F3.8221234905340724
sI144
F3.953785940277636
sI145
F3.251230628701867
sI146
F3.4484058201931442
sI147
F3.4575763535371657
sI148
F3.8171706317894465
sI149
F3.2392203377888458
sI150
F3.512645446044552
sI151
F3.944279587659581
sI152
F3.829149804940997
sI153
F2.9778186868114105
sI154
F3.607435997949575
sI155
F4.1289495906235025
sI156
F3.2582307905229104
sI157
F4.276122986643408
sI158
F4.273641933000017
sI159
F3.011254698050884
sI160
F3.3487113778138404
sI161
F3.328072760227647
sI162
F3.178828984032222
sI163
F3.2265652759381784
sI164
F3.420514807453917
sI165
F3.576174289333262
sI166
F4.103084804374472
sI167
F3.649323099281981
sI168
F3.925493770054976
sI169
F4.053378099972222
sI170
F4.129248063017192
sI171
F4.207681057331779
sI172
F3.790221892687822
sI173
F4.145564101150042
sI174
F4.239685518809344
sI175
F4.00995135667759
sI176
F3.46227140048673
sI177
F3.254341527560862
sI178
F3.373083679553108
sI179
F3.263711172224586
sI180
F3.121508565382971
sI181
F3.420455144895598
sI182
F3.837707637907374
sI183
F4.6292136872870335
sI184
F3.9869467062267807
sI185
F3.6931347869054365
sI186
F3.544776242806104
sI187
F3.1357421504292153
sI188
F3.318121753122521
sI189
F2.8773368079518957
sI190
F3.5529080909811817
sI191
F3.948093483757922
sI192
F3.459839822475535
sI193
F3.4393302108076576
sI194
F3.326504098839903
sI195
F3.8391625775590636
sI196
F3.9185823317484334
sI197
F4.241430119739477
sI198
F4.303190796007398
sI199
F3.5431427055097293
sI200
F4.452527516108668
sI201
F4.382180421814673
sI202
F4.323679323289424
sI203
F4.107804675426496
sI204
F3.7128321854752735
sI205
F3.6199706424283304
sI206
F3.6646469788574323
sI207
F3.5896387246698156
sI208
F3.540960340894767
sI209
F3.332563028594964
sI210
F3.652643508289706
sI211
F3.9772686647371396
sI212
F3.1765094886473455
sI213
F2.7337837190031222
sI214
F3.5758389406546014
sI215
F3.5392348275822973
sI216
F3.9323216817585536
sI217
F3.279841908628333
sI218
F4.258042712635975
sI219
F4.296565906216041
sI220
F4.105876524174545
sI221
F4.288677743314054
sI222
F4.2891174046430365
sI223
F4.1698286846905335
sI224
F4.45996820968998
sI225
F4.2192395855072595
sI226
F4.022993275386476
sI227
F4.376116737928992
sI228
F4.804036993642785
sI229
F4.742617166291668
sI230
F4.438080002310631
sI231
F4.675589912678952
sI232
F4.880490211098271
sI233
F4.526333625852183
sI234
F3.9087070686730687
sI235
F4.236844946706371
sI236
F4.142333702000934
sI237
F4.164657481500429
sI238
F4.390565687658567
sI239
F4.633105975549851
sI240
F4.219635017584243
sI241
F4.411581261069832
sI242
F4.165026287578011
sI243
F4.205126215489371
sI244
F4.090346475701938
sI245
F3.109025018269698
sI246
F3.113253747408961
sI247
F4.051430209319943
sI248
F4.097285497225961
sI249
F3.5910781617386482
sI250
F3.712730607731011
sI251
F4.350675747196124
sI252
F4.119436945295832
sI253
F4.481707560431716
sI254
F3.6867070485456748
sI255
F3.7205458582352864
sI256
F3.863643903867008
sI257
F3.4904452855781627
sI258
F3.246062404182001
sI259
F3.3181045374243583
sI260
F3.200404779220809
sI261
F3.3137212598865458
sI262
F3.223907772563664
sI263
F3.0166153816636405
sI264
F3.6457893431697608
sI265
F4.374713167705685
sI266
F5.681443884008638
sI267
F4.071409883022915
sI268
F3.907531709876844
sI269
F3.9965298984643476
sI270
F3.553832201001144
sI271
F3.621536644413473
sI272
F3.7810180481396376
sI273
F3.779164203116339
sI274
F3.5454821928998266
sI275
F3.7430727906587222
sI276
F3.691857207532215
sI277
F4.902097334596352
sI278
F4.2991641776767455
sI279
F3.8375888288661697
sI280
F3.465043199431247
sI281
F3.8018901395201827
sI282
F4.372652695933506
sI283
F3.696114893796452
sI284
F3.32264054873526
sI285
F4.072926831258648
sI286
F3.3858672647820742
sI287
F3.798142471526707
sI288
F3.8748842283691496
sI289
F3.631736460817056
sI290
F3.7423865117125183
sI291
F4.267213808570626
sI292
F3.8943486311060154
sI293
F3.0404258909580615
sI294
F3.3415319465060285
sI295
F3.9334418922621066
sI296
F4.122977746723492
sI297
F4.293130088635915
sI298
F3.692242559625444
sI299
F3.873512173059529
sI300
F3.3407303509803783
sI301
F4.045992208110691
sI302
F4.00140690027837
sI303
F4.164955559568097
sI304
F4.178402193162644
sI305
F4.443172453964098
sI306
F4.405463696070382
sI307
F3.878866277049878
sI308
F3.302593357565728
sI309
F3.327120993112578
sI310
F3.7528475253591793
sI311
F3.9448279882410717
sI312
F4.377220329847755
sI313
F4.265582588399341
sI314
F4.72346282378164
sI315
F4.321144315694036
sI316
F4.28258973075988
sI317
F3.650007898133549
sI318
F3.4567891461567166
sI319
F3.6881924031994586
sI320
F3.303256817047924
sI321
F3.5517991448337605
sI322
F4.286082066609169
sI323
F3.4115645953247347
sI324
F3.7340963754625727
sI325
F4.2090359636341885
sI326
F4.511353080059485
sI327
F6.2241574871349385
sI328
F6.515918613635586
sI329
F6.196794843442515
sI330
F5.794029305795759
sI331
F5.721308458721525
sI332
F4.808044824700406
sI333
F4.351131417447013
sI334
F4.863049893464072
sI335
F3.9770911405823695
sI336
F4.510207538522078
sI337
F3.3415458293146316
sI338
F3.861248571570215
sI339
F4.448572596062986
sI340
F4.679686142440802
sI341
F4.773136234498663
sI342
F3.923037909394429
sI343
F3.5003962794503827
sI344
F3.6453722492630085
sI345
F4.045666079343462
sI346
F3.603540962722003
sI347
F3.7731447801273017
sI348
F3.9888408151902763
sI349
F3.7680789201952942
sI350
F4.174383685876238
sI351
F3.9360426899546073
sI352
F4.132607041658996
sI353
F3.921379022188071
sI354
F5.23674685204598
sI355
F4.6129191866343575
sI356
F5.297287433611704
sI357
F4.456200413592433
sI358
F4.6133283216488845
sI359
F4.755738720720922
sI360
F4.4329633523834495
sI361
F4.471795773403402
sI362
F3.099286386376705
sI363
F3.8290028726089393
sI364
F3.9114484903237674
sI365
F4.266520605441138
sI366
F3.7037904550394396
sI367
F3.7767522067841073
sI368
F4.417398241783971
sI369
F4.271414103572183
sI370
F3.7346575379484683
sI371
F3.737266952201667
sI372
F4.053914319463295
sI373
F4.421759159243407
sI374
F4.2942361974018795
sI375
F3.9572200755361018
sI376
F3.5502693312421516
sI377
F3.7336501524561982
sI378
F4.2524115612247035
sI379
F4.425322298481379
sI380
F4.506238812795245
sI381
F3.752495874405864
sI382
F4.680842974213537
sI383
F3.3634081195936685
sI384
F4.157919485498019
sI385
F3.9484197728980774
sI386
F4.105727613504706
sI387
F3.895651363682377
sI388
F4.35961640082318
sI389
F3.9513139443677887
sI390
F3.9354555463928764
sI391
F4.910846170328391
sI392
F5.062494891576572
sI393
F4.590348180334688
sI394
F4.32683513061507
sI395
F4.1625561556945
sI396
F4.616537081767686
sI397
F3.741760837161003
sI398
F3.4077794311358507
sI399
F3.5074730453850744
sI400
F3.357924442682549
sI401
F4.469682640594667
sI402
F3.1695038680090555
sI403
F3.5274393314832606
sI404
F3.530046407034052
sI405
F3.593364781128402
sI406
F3.7296980813563168
sI407
F3.0930432027796315
sI408
F3.358257734292187
sI409
F4.0550625154314615
sI410
F4.309514709000092
sI411
F3.808741010950917
sI412
F4.441304597893326
sI413
F4.834823844981574
sI414
F5.090829266307197
sI415
F4.571866276990892
sI416
F4.47372707602269
sI417
F3.9508840093662108
sI418
F3.6227042827623763
sI419
F3.26386750522496
sI420
F4.551724919321237
sI421
F4.817438816607893
sI422
F4.833070761998765
sI423
F4.251084109417623
sI424
F3.637587523962222
sI425
F3.4906878507064607
sI426
F2.993302768417035
sI427
F4.038572031594808
sI428
F3.8647026435570266
sI429
F3.2568282534771336
sI430
F3.5167774355949257
sI431
F3.749930821059881
sI432
F3.438647912333353
sI433
F4.572396931528521
sI434
F4.070349229030911
sI435
F4.874554335374611
sI436
F3.939715388814022
sI437
F3.345562696595989
sI438
F3.323027176780025
sI439
F3.7289265371412736
sI440
F3.6788619699175413
sI441
F3.9929656235029847
sI442
F3.2877912621754746
sI443
F3.5946110969184106
sI444
F3.5992408641030798
sI445
F4.468645338974835
sI446
F4.209874843668803
sI447
F5.2329741291529155
sI448
F5.16118532208143
sI449
F5.21449844971902
sI450
F5.005419778106817
sI451
F4.7853450121968715
sI452
F5.2321382025094145
sI453
F5.199564238660409
sI454
F4.3900426356915805
sI455
F5.258472710353436
sI456
F4.9790445963105725
sI457
F4.515557597074045
sI458
F4.786404772074946
sI459
F4.091273059088299
sI460
F4.230196687520049
sI461
F4.516970705419025
sI462
F4.271341204024422
sI463
F4.224555710113215
sI464
F3.604495275273923
sI465
F3.9137610493702524
sI466
F4.182335782995388
sI467
F3.4423387526809583
sI468
F3.992433072737708
sI469
F4.2465803761935765
sI470
F3.351348407448164
sI471
F4.297802433974653
sI472
F4.478213939591687
sI473
F4.758665947481194
sI474
F4.7529441128231
sI475
F3.7957204611971513
sI476
F3.524045007821132
sI477
F4.152103876450916
sI478
F3.651142715001404
sI479
F3.9082225642667012
sI480
F4.434027368508309
sI481
F4.299326761233889
sI482
F4.500675759962446
sI483
F4.418716698625339
sI484
F3.8433302079631693
sI485
F4.67950514146656
sI486
F4.0099986767657825
sI487
F4.087801380226209
sI488
F3.6369779082144156
sI489
F3.736402682603017
sI490
F3.6003189338615273
sI491
F3.279321800630584
sI492
F4.279162840744034
sI493
F5.165267688585982
sI494
F4.3143130814167705
sI495
F4.5054728191622075
sI496
F3.705002523206149
sI497
F4.098468572449911
s.